; Function Attrs: nounwind ssp uwtable
define dso_local range(i32 -1, 1) i32 @crypto_secretbox_xchacha20poly1305_open_detached(ptr noundef %0, ptr noundef nonnull %1, ptr noundef nonnull %2, i64 noundef %3, ptr noundef nonnull %4, ptr noundef nonnull %5) local_unnamed_addr #0 {
  %7 = alloca [64 x i8], align 16
  %8 = alloca [32 x i8], align 16
  call void @llvm.lifetime.start.p0(i64 64, ptr nonnull %7) #8
  call void @llvm.lifetime.start.p0(i64 32, ptr nonnull %8) #8
  %9 = call i32 @crypto_core_hchacha20(ptr noundef nonnull %8, ptr noundef nonnull %4, ptr noundef nonnull %5, ptr noundef null) #8
  call void @llvm.memset.p0.i64(ptr noundef nonnull align 16 dereferenceable(32) %7, i8 noundef 0, i64 noundef 32, i1 noundef false) #8
  %10 = icmp ugt i64 %3, 32
  %spec.store.select = call i64 @llvm.umin.i64(i64 %3, i64 32)
  %.not60 = icmp eq i64 %3, 0
  br i1 %.not60, label %._crit_edge, label %.lr.ph.preheader

.lr.ph.preheader:                                 ; preds = %6
  %scevgep = getelementptr inbounds nuw i8, ptr %7, i64 32
  call void @llvm.memcpy.p0.p0.i64(ptr nonnull align 16 %scevgep, ptr nonnull align 1 %1, i64 %spec.store.select, i1 false)
  br label %._crit_edge

._crit_edge:                                      ; preds = %.lr.ph.preheader, %6
  %11 = getelementptr i8, ptr %4, i64 16
  %12 = call i32 @crypto_stream_chacha20_xor(ptr noundef nonnull %7, ptr noundef nonnull %7, i64 noundef 64, ptr noundef %11, ptr noundef nonnull %8) #8
  %13 = call i32 @crypto_onetimeauth_poly1305_verify(ptr noundef nonnull %2, ptr noundef nonnull %1, i64 noundef %3, ptr noundef nonnull %7) #8
  %.not = icmp eq i32 %13, 0
  br i1 %.not, label %14, label %.sink.split

14:                                               ; preds = %._crit_edge
  %15 = icmp eq ptr %0, null
  br i1 %15, label %32, label %16

16:                                               ; preds = %14
  %17 = ptrtoint ptr %1 to i64
  %18 = ptrtoint ptr %0 to i64
  %19 = icmp ugt ptr %1, %0
  %20 = sub i64 %17, %18
  %21 = icmp ult i64 %20, %3
  %or.cond = and i1 %19, %21
  br i1 %or.cond, label %.thread, label %22

22:                                               ; preds = %16
  %23 = icmp ugt ptr %0, %1
  %24 = sub i64 %18, %17
  %25 = icmp ult i64 %24, %3
  %or.cond54 = and i1 %23, %25
  br i1 %or.cond54, label %.thread, label %26

.thread:                                          ; preds = %16, %22
  call void @llvm.memmove.p0.p0.i64(ptr noundef nonnull align 1 %0, ptr noundef nonnull align 1 %1, i64 noundef %3, i1 noundef false) #8
  br label %._crit_edge59

26:                                               ; preds = %22
  br i1 %.not60, label %.sink.split, label %._crit_edge59

._crit_edge59:                                    ; preds = %26, %.thread
  %.04564 = phi ptr [ %0, %.thread ], [ %1, %26 ]
  %scevgep62 = getelementptr inbounds nuw i8, ptr %7, i64 32
  call void @llvm.memcpy.p0.p0.i64(ptr nonnull align 1 %0, ptr nonnull align 16 %scevgep62, i64 %spec.store.select, i1 false)
  br i1 %10, label %27, label %.sink.split

27:                                               ; preds = %._crit_edge59
  %28 = getelementptr i8, ptr %0, i64 %spec.store.select
  %29 = getelementptr i8, ptr %.04564, i64 %spec.store.select
  %30 = sub nuw i64 %3, %spec.store.select
  %31 = call i32 @crypto_stream_chacha20_xor_ic(ptr noundef %28, ptr noundef %29, i64 noundef %30, ptr noundef %11, i64 noundef 1, ptr noundef nonnull %8) #8
  br label %.sink.split

.sink.split:                                      ; preds = %._crit_edge59, %27, %26, %._crit_edge
  %.044.ph = phi i32 [ -1, %._crit_edge ], [ 0, %26 ], [ 0, %27 ], [ 0, %._crit_edge59 ]
  call void @sodium_memzero(ptr noundef nonnull %8, i64 noundef 32) #8
  br label %32

32:                                               ; preds = %.sink.split, %14
  %.044 = phi i32 [ 0, %14 ], [ %.044.ph, %.sink.split ]
  call void @llvm.lifetime.end.p0(i64 32, ptr nonnull %8) #8
  call void @llvm.lifetime.end.p0(i64 64, ptr nonnull %7) #8
  ret i32 %.044
}